; Function Attrs: mustprogress uwtable
define void @_ZN6icu_7714TimeUnitFormat15setNumberFormatERKNS_12NumberFormatER10UErrorCode(ptr noundef nonnull align 8 dereferenceable(124) %0, ptr noundef nonnull align 8 dereferenceable(60) %1, ptr noundef nonnull align 4 dereferenceable(4) %2) local_unnamed_addr #1 align 2 {
  %4 = load i32, ptr %2, align 4, !tbaa !13
  %5 = icmp slt i32 %4, 1
  br i1 %5, label %6, label %11

6:                                                ; preds = %3
  %7 = load ptr, ptr %1, align 8, !tbaa !15
  %8 = getelementptr inbounds nuw i8, ptr %7, i64 32
  %9 = load ptr, ptr %8, align 8
  %10 = tail call noundef ptr %9(ptr noundef nonnull align 8 dereferenceable(60) %1)
  tail call void @_ZN6icu_7713MeasureFormat17adoptNumberFormatEPNS_12NumberFormatER10UErrorCode(ptr noundef nonnull align 8 dereferenceable(64) %0, ptr noundef %10, ptr noundef nonnull align 4 dereferenceable(4) %2)
  br label %11

11:                                               ; preds = %3, %6
  ret void
}